; ModuleID = '12/131.c'
source_filename = "12/131.c"
target datalayout = "e-m:e-p270:32:32-p271:32:32-p272:64:64-i64:64-f80:128-n8:16:32:64-S128"
target triple = "x86_64-pc-linux-gnu"

@.str = private unnamed_addr constant [3 x i8] c"%d\00", align 1
@.str.1 = private unnamed_addr constant [4 x i8] c"%d\0A\00", align 1

; Function Attrs: noinline nounwind uwtable
define dso_local i32 @main() #0 {
  %1 = alloca i32, align 4
  %2 = alloca [50 x i32], align 16
  %3 = alloca i32*, align 8
  %4 = alloca i32, align 4
  %5 = alloca i32, align 4
  %6 = alloca i32*, align 8
  store i32 0, i32* %1, align 4
  store i32 0, i32* %5, align 4
  store i32 0, i32* %4, align 4
  br label %7

7:                                                ; preds = %67, %0
  %8 = load i32, i32* %4, align 4
  %9 = sext i32 %8 to i64
  %10 = getelementptr inbounds [50 x i32], [50 x i32]* %2, i64 0, i64 %9
  %11 = call i32 (i8*, ...) @__isoc99_scanf(i8* getelementptr inbounds ([3 x i8], [3 x i8]* @.str, i64 0, i64 0), i32* %10)
  %12 = load i32, i32* %4, align 4
  %13 = sext i32 %12 to i64
  %14 = getelementptr inbounds [50 x i32], [50 x i32]* %2, i64 0, i64 %13
  %15 = load i32, i32* %14, align 4
  %16 = icmp eq i32 %15, -1
  br i1 %16, label %17, label %18

17:                                               ; preds = %7
  br label %68

18:                                               ; preds = %7
  store i32 1, i32* %4, align 4
  br label %19

19:                                               ; preds = %31, %18
  %20 = load i32, i32* %4, align 4
  %21 = sext i32 %20 to i64
  %22 = getelementptr inbounds [50 x i32], [50 x i32]* %2, i64 0, i64 %21
  %23 = call i32 (i8*, ...) @__isoc99_scanf(i8* getelementptr inbounds ([3 x i8], [3 x i8]* @.str, i64 0, i64 0), i32* %22)
  %24 = load i32, i32* %4, align 4
  %25 = sext i32 %24 to i64
  %26 = getelementptr inbounds [50 x i32], [50 x i32]* %2, i64 0, i64 %25
  %27 = load i32, i32* %26, align 4
  %28 = icmp eq i32 %27, 0
  br i1 %28, label %29, label %30

29:                                               ; preds = %19
  br label %34

30:                                               ; preds = %19
  br label %31

31:                                               ; preds = %30
  %32 = load i32, i32* %4, align 4
  %33 = add nsw i32 %32, 1
  store i32 %33, i32* %4, align 4
  br label %19

34:                                               ; preds = %29
  %35 = getelementptr inbounds [50 x i32], [50 x i32]* %2, i64 0, i64 0
  store i32* %35, i32** %3, align 8
  br label %36

36:                                               ; preds = %61, %34
  %37 = load i32*, i32** %3, align 8
  %38 = load i32, i32* %37, align 4
  %39 = icmp ne i32 %38, 0
  br i1 %39, label %40, label %64

40:                                               ; preds = %36
  %41 = getelementptr inbounds [50 x i32], [50 x i32]* %2, i64 0, i64 0
  store i32* %41, i32** %6, align 8
  br label %42

42:                                               ; preds = %57, %40
  %43 = load i32*, i32** %6, align 8
  %44 = load i32, i32* %43, align 4
  %45 = icmp ne i32 %44, 0
  br i1 %45, label %46, label %60

46:                                               ; preds = %42
  %47 = load i32*, i32** %6, align 8
  %48 = load i32, i32* %47, align 4
  %49 = load i32*, i32** %3, align 8
  %50 = load i32, i32* %49, align 4
  %51 = mul nsw i32 %50, 2
  %52 = icmp eq i32 %48, %51
  br i1 %52, label %53, label %56

53:                                               ; preds = %46
  %54 = load i32, i32* %5, align 4
  %55 = add nsw i32 %54, 1
  store i32 %55, i32* %5, align 4
  br label %56

56:                                               ; preds = %53, %46
  br label %57

57:                                               ; preds = %56
  %58 = load i32*, i32** %6, align 8
  %59 = getelementptr inbounds i32, i32* %58, i32 1
  store i32* %59, i32** %6, align 8
  br label %42

60:                                               ; preds = %42
  br label %61

61:                                               ; preds = %60
  %62 = load i32*, i32** %3, align 8
  %63 = getelementptr inbounds i32, i32* %62, i32 1
  store i32* %63, i32** %3, align 8
  br label %36

64:                                               ; preds = %36
  %65 = load i32, i32* %5, align 4
  %66 = call i32 (i8*, ...) @printf(i8* getelementptr inbounds ([4 x i8], [4 x i8]* @.str.1, i64 0, i64 0), i32 %65)
  store i32 0, i32* %5, align 4
  br label %67

67:                                               ; preds = %64
  store i32 0, i32* %4, align 4
  br label %7

68:                                               ; preds = %17
  ret i32 0
}

declare dso_local i32 @__isoc99_scanf(i8*, ...) #1

declare dso_local i32 @printf(i8*, ...) #1


!llvm.module.flags = !{!0}
!llvm.ident = !{!1}

!0 = !{i32 1, !"wchar_size", i32 4}
!1 = !{!"clang version 10.0.0-4ubuntu1 "}
